target datalayout = "e-m:e-p270:32:32-p271:32:32-p272:64:64-i64:64-i128:128-f80:128-n8:16:32:64-S128"
target triple = "x86_64-pc-linux-gnu"

%struct.string_list = type { ptr, i64, i64, i8, ptr }
%struct.string_list_item = type { ptr, ptr }

@verbose = internal global i32 0, align 4
@.str.158 = private unnamed_addr constant [1 x i8] zeroinitializer, align 1
@.str.213 = private unnamed_addr constant [7 x i8] c"%s\09%s\0A\00", align 1
@.str.214 = private unnamed_addr constant [4 x i8] c"%s\0A\00", align 1

; Function Attrs: nounwind uwtable
define internal i32 @show_all() #0 {
  %1 = alloca %struct.string_list, align 8
  %2 = alloca i32, align 4
  %3 = alloca i32, align 4
  %4 = alloca ptr, align 8
  %5 = alloca i32, align 4
  call void @llvm.lifetime.start.p0(i64 40, ptr %1) #11
  call void @llvm.memset.p0.i64(ptr align 8 %1, i8 0, i64 40, i1 false)
  %6 = getelementptr inbounds { ptr, i64, i64, i8, [7 x i8], ptr }, ptr %1, i32 0, i32 3
  store i8 1, ptr %6, align 8
  call void @llvm.lifetime.start.p0(i64 4, ptr %2) #11
  %7 = call i32 @for_each_remote(ptr noundef @get_one_entry, ptr noundef %1)
  store i32 %7, ptr %2, align 4, !tbaa !4
  %8 = load i32, ptr %2, align 4, !tbaa !4
  %9 = icmp ne i32 %8, 0
  br i1 %9, label %68, label %10

10:                                               ; preds = %0
  call void @llvm.lifetime.start.p0(i64 4, ptr %3) #11
  call void @string_list_sort(ptr noundef %1)
  store i32 0, ptr %3, align 4, !tbaa !4
  br label %11

11:                                               ; preds = %64, %10
  %12 = load i32, ptr %3, align 4, !tbaa !4
  %13 = sext i32 %12 to i64
  %14 = getelementptr inbounds nuw %struct.string_list, ptr %1, i32 0, i32 1
  %15 = load i64, ptr %14, align 8, !tbaa !30
  %16 = icmp ult i64 %13, %15
  br i1 %16, label %17, label %67

17:                                               ; preds = %11
  call void @llvm.lifetime.start.p0(i64 8, ptr %4) #11
  %18 = getelementptr inbounds nuw %struct.string_list, ptr %1, i32 0, i32 0
  %19 = load ptr, ptr %18, align 8, !tbaa !37
  %20 = load i32, ptr %3, align 4, !tbaa !4
  %21 = sext i32 %20 to i64
  %22 = getelementptr inbounds %struct.string_list_item, ptr %19, i64 %21
  store ptr %22, ptr %4, align 8, !tbaa !62
  %23 = load i32, ptr @verbose, align 4, !tbaa !4
  %24 = icmp ne i32 %23, 0
  br i1 %24, label %25, label %41

25:                                               ; preds = %17
  %26 = load ptr, ptr %4, align 8, !tbaa !62
  %27 = getelementptr inbounds nuw %struct.string_list_item, ptr %26, i32 0, i32 0
  %28 = load ptr, ptr %27, align 8, !tbaa !38
  %29 = load ptr, ptr %4, align 8, !tbaa !62
  %30 = getelementptr inbounds nuw %struct.string_list_item, ptr %29, i32 0, i32 1
  %31 = load ptr, ptr %30, align 8, !tbaa !63
  %32 = icmp ne ptr %31, null
  br i1 %32, label %33, label %37

33:                                               ; preds = %25
  %34 = load ptr, ptr %4, align 8, !tbaa !62
  %35 = getelementptr inbounds nuw %struct.string_list_item, ptr %34, i32 0, i32 1
  %36 = load ptr, ptr %35, align 8, !tbaa !63
  br label %38

37:                                               ; preds = %25
  br label %38

38:                                               ; preds = %37, %33
  %39 = phi ptr [ %36, %33 ], [ @.str.158, %37 ]
  %40 = call i32 (ptr, ...) @printf(ptr noundef @.str.213, ptr noundef %28, ptr noundef %39)
  br label %60

41:                                               ; preds = %17
  %42 = load i32, ptr %3, align 4, !tbaa !4
  %43 = icmp ne i32 %42, 0
  br i1 %43, label %44, label %55

44:                                               ; preds = %41
  %45 = load ptr, ptr %4, align 8, !tbaa !62
  %46 = getelementptr inbounds %struct.string_list_item, ptr %45, i64 -1
  %47 = getelementptr inbounds nuw %struct.string_list_item, ptr %46, i32 0, i32 0
  %48 = load ptr, ptr %47, align 8, !tbaa !38
  %49 = load ptr, ptr %4, align 8, !tbaa !62
  %50 = getelementptr inbounds nuw %struct.string_list_item, ptr %49, i32 0, i32 0
  %51 = load ptr, ptr %50, align 8, !tbaa !38
  %52 = call i32 @strcmp(ptr noundef %48, ptr noundef %51) #14
  %53 = icmp ne i32 %52, 0
  br i1 %53, label %55, label %54

54:                                               ; preds = %44
  store i32 4, ptr %5, align 4
  br label %61

55:                                               ; preds = %44, %41
  %56 = load ptr, ptr %4, align 8, !tbaa !62
  %57 = getelementptr inbounds nuw %struct.string_list_item, ptr %56, i32 0, i32 0
  %58 = load ptr, ptr %57, align 8, !tbaa !38
  %59 = call i32 (ptr, ...) @printf(ptr noundef @.str.214, ptr noundef %58)
  br label %60

60:                                               ; preds = %55, %38
  store i32 0, ptr %5, align 4
  br label %61

61:                                               ; preds = %60, %54
  call void @llvm.lifetime.end.p0(i64 8, ptr %4) #11
  %62 = load i32, ptr %5, align 4
  switch i32 %62, label %70 [
    i32 0, label %63
    i32 4, label %64
  ]

63:                                               ; preds = %61
  br label %64

64:                                               ; preds = %63, %61
  %65 = load i32, ptr %3, align 4, !tbaa !4
  %66 = add nsw i32 %65, 1
  store i32 %66, ptr %3, align 4, !tbaa !4
  br label %11, !llvm.loop !126

67:                                               ; preds = %11
  call void @llvm.lifetime.end.p0(i64 4, ptr %3) #11
  br label %68

68:                                               ; preds = %67, %0
  call void @string_list_clear(ptr noundef %1, i32 noundef 1)
  %69 = load i32, ptr %2, align 4, !tbaa !4
  store i32 1, ptr %5, align 4
  call void @llvm.lifetime.end.p0(i64 4, ptr %2) #11
  call void @llvm.lifetime.end.p0(i64 40, ptr %1) #11
  ret i32 %69

70:                                               ; preds = %61
  unreachable
}