; Function Attrs: nounwind uwtable
define internal fastcc i32 @show_all() unnamed_addr #0 {
  %1 = alloca %struct.string_list, align 8
  call void @llvm.lifetime.start.p0(i64 40, ptr nonnull %1) #19
  call void @llvm.memset.p0.i64(ptr noundef nonnull align 8 dereferenceable(40) %1, i8 0, i64 40, i1 false)
  %2 = getelementptr inbounds nuw i8, ptr %1, i64 24
  store i8 1, ptr %2, align 8
  %3 = call i32 @for_each_remote(ptr noundef nonnull @get_one_entry, ptr noundef nonnull %1) #19
  %.not = icmp eq i32 %3, 0
  br i1 %.not, label %4, label %.loopexit

4:                                                ; preds = %0
  call void @string_list_sort(ptr noundef nonnull %1) #19
  %5 = getelementptr inbounds nuw i8, ptr %1, i64 8
  %6 = load i64, ptr %5, align 8, !tbaa !30
  %.not18 = icmp eq i64 %6, 0
  br i1 %.not18, label %.loopexit, label %.lr.ph

.lr.ph:                                           ; preds = %4, %21
  %indvars.iv = phi i64 [ %indvars.iv.next, %21 ], [ 0, %4 ]
  %7 = load ptr, ptr %1, align 8, !tbaa !33
  %8 = getelementptr inbounds nuw %struct.string_list_item, ptr %7, i64 %indvars.iv
  %9 = load i32, ptr @verbose, align 4, !tbaa !21
  %.not13 = icmp eq i32 %9, 0
  br i1 %.not13, label %15, label %10

10:                                               ; preds = %.lr.ph
  %11 = load ptr, ptr %8, align 8, !tbaa !34
  %12 = getelementptr inbounds nuw i8, ptr %8, i64 8
  %13 = load ptr, ptr %12, align 8, !tbaa !67
  %.not16 = icmp eq ptr %13, null
  %spec.select = select i1 %.not16, ptr @.str.158, ptr %13
  %14 = call i32 (ptr, ...) @printf(ptr noundef nonnull dereferenceable(1) @.str.213, ptr noundef %11, ptr noundef nonnull %spec.select)
  br label %21

15:                                               ; preds = %.lr.ph
  %.not14 = icmp eq i64 %indvars.iv, 0
  %.pre = load ptr, ptr %8, align 8, !tbaa !34
  br i1 %.not14, label %20, label %16

16:                                               ; preds = %15
  %17 = getelementptr inbounds i8, ptr %8, i64 -16
  %18 = load ptr, ptr %17, align 8, !tbaa !34
  %19 = call i32 @strcmp(ptr noundef nonnull dereferenceable(1) %18, ptr noundef nonnull dereferenceable(1) %.pre) #21
  %.not15 = icmp eq i32 %19, 0
  br i1 %.not15, label %21, label %20

20:                                               ; preds = %16, %15
  %puts = call i32 @puts(ptr nonnull dereferenceable(1) %.pre)
  br label %21

21:                                               ; preds = %10, %20, %16
  %indvars.iv.next = add nuw nsw i64 %indvars.iv, 1
  %22 = load i64, ptr %5, align 8, !tbaa !30
  %23 = icmp ugt i64 %22, %indvars.iv.next
  br i1 %23, label %.lr.ph, label %.loopexit, !llvm.loop !126

.loopexit:                                        ; preds = %21, %4, %0
  call void @string_list_clear(ptr noundef nonnull %1, i32 noundef 1) #19
  call void @llvm.lifetime.end.p0(i64 40, ptr nonnull %1) #19
  ret i32 %3
}